; Function Attrs: nounwind uwtable
define hidden ptr @_Py_make_typevartuple(ptr noundef readnone captures(none) %0, ptr noundef %1) local_unnamed_addr #0 {
  %3 = tail call align 8 ptr @llvm.threadlocal.address.p0(ptr align 8 @_Py_tss_tstate)
  %4 = load ptr, ptr %3, align 8, !tbaa !28
  %5 = getelementptr inbounds nuw i8, ptr %4, i64 16
  %6 = load ptr, ptr %5, align 8, !tbaa !39
  %7 = getelementptr inbounds nuw i8, ptr %6, i64 224512
  %8 = load ptr, ptr %7, align 8, !tbaa !40
  %9 = tail call ptr @_PyObject_GC_New(ptr noundef %8) #8
  %10 = icmp eq ptr %9, null
  br i1 %10, label %typevartuple_alloc.exit, label %11

11:                                               ; preds = %2
  %12 = load i32, ptr %1, align 8, !tbaa !27
  %13 = icmp slt i32 %12, 0
  br i1 %13, label %_Py_NewRef.exit.i, label %14

14:                                               ; preds = %11
  %15 = add nuw i32 %12, 1
  store i32 %15, ptr %1, align 8, !tbaa !27
  br label %_Py_NewRef.exit.i

_Py_NewRef.exit.i:                                ; preds = %14, %11
  %16 = getelementptr inbounds nuw i8, ptr %9, i64 16
  store ptr %1, ptr %16, align 8, !tbaa !109
  %17 = getelementptr inbounds nuw i8, ptr %9, i64 24
  %18 = getelementptr i8, ptr %9, i64 -16
  tail call void @llvm.memset.p0.i64(ptr noundef nonnull align 8 dereferenceable(16) %17, i8 0, i64 16, i1 false)
  %19 = load ptr, ptr %3, align 8, !tbaa !28
  %20 = getelementptr inbounds nuw i8, ptr %19, i64 16
  %21 = load ptr, ptr %20, align 8, !tbaa !39
  %22 = getelementptr inbounds nuw i8, ptr %21, i64 7424
  %23 = getelementptr inbounds nuw i8, ptr %21, i64 7432
  %24 = load i64, ptr %23, align 8, !tbaa !113
  %25 = inttoptr i64 %24 to ptr
  %26 = ptrtoint ptr %18 to i64
  %27 = load i64, ptr %25, align 8, !tbaa !114
  %28 = and i64 %27, 3
  %29 = or i64 %28, %26
  store i64 %29, ptr %25, align 8, !tbaa !114
  %30 = getelementptr i8, ptr %9, i64 -8
  %31 = load i64, ptr %30, align 8, !tbaa !113
  %32 = and i64 %31, 3
  %33 = or i64 %32, %24
  store i64 %33, ptr %30, align 8, !tbaa !113
  %34 = getelementptr inbounds nuw i8, ptr %21, i64 7632
  %35 = load i32, ptr %34, align 8, !tbaa !115
  %36 = xor i32 %35, 1
  %37 = sext i32 %36 to i64
  %38 = ptrtoint ptr %22 to i64
  %39 = or i64 %37, %38
  store i64 %39, ptr %18, align 8, !tbaa !114
  store i64 %26, ptr %23, align 8, !tbaa !113
  br label %typevartuple_alloc.exit

typevartuple_alloc.exit:                          ; preds = %2, %_Py_NewRef.exit.i
  ret ptr %9
}